; Function Attrs: null_pointer_is_valid sspstrong uwtable
define internal noundef i32 @dissect_pfcp_enterprise_bbf_multicast_query_parameters(ptr noundef %0, ptr readnone captures(none) %1, ptr noundef %2, ptr readnone captures(none) %3) #0 {
  %5 = load i32, ptr @hf_pfcp_bbf_multicast_query_param_robustness, align 4
  %6 = tail call ptr @proto_tree_add_item(ptr noundef %2, i32 noundef %5, ptr noundef %0, i32 noundef 0, i32 noundef 1, i32 noundef 0)
  %7 = load i32, ptr @hf_pfcp_bbf_multicast_query_param_query_interval, align 4
  %8 = tail call ptr @proto_tree_add_item(ptr noundef %2, i32 noundef %7, ptr noundef %0, i32 noundef 1, i32 noundef 2, i32 noundef 0)
  %9 = load i32, ptr @hf_pfcp_bbf_multicast_query_param_query_response_interval, align 4
  %10 = tail call ptr @proto_tree_add_item(ptr noundef %2, i32 noundef %9, ptr noundef %0, i32 noundef 3, i32 noundef 2, i32 noundef 0)
  %11 = load i32, ptr @hf_pfcp_bbf_multicast_query_param_group_query_interval, align 4
  %12 = tail call ptr @proto_tree_add_item(ptr noundef %2, i32 noundef %11, ptr noundef %0, i32 noundef 5, i32 noundef 2, i32 noundef 0)
  ret i32 7
}